; Function Attrs: mustprogress uwtable
define void @_ZN11LayerDialog5resetEv(ptr nocapture noundef nonnull readonly align 8 dereferenceable(256) %0) local_unnamed_addr #9 align 2 {
  %2 = getelementptr inbounds i8, ptr %0, i64 48
  %3 = load ptr, ptr %2, align 8
  %4 = getelementptr inbounds i8, ptr %3, i64 16
  %5 = load ptr, ptr %4, align 8
  tail call void @_ZN11QTreeWidget5clearEv(ptr noundef nonnull align 8 dereferenceable(48) %5)
  %6 = load ptr, ptr %2, align 8
  %7 = getelementptr inbounds i8, ptr %6, i64 192
  %8 = load ptr, ptr %7, align 8
  tail call void @_ZN11QTreeWidget5clearEv(ptr noundef nonnull align 8 dereferenceable(48) %8)
  %9 = load ptr, ptr %2, align 8
  %10 = getelementptr inbounds i8, ptr %9, i64 176
  %11 = load ptr, ptr %10, align 8
  tail call void @_ZN11QTreeWidget5clearEv(ptr noundef nonnull align 8 dereferenceable(48) %11)
  %12 = getelementptr inbounds i8, ptr %0, i64 240
  %13 = load ptr, ptr %12, align 8
  %.not = icmp eq ptr %13, null
  br i1 %.not, label %15, label %14

14:                                               ; preds = %1
  tail call void @_ZN15QAbstractButton10setCheckedEb(ptr noundef nonnull align 8 dereferenceable(48) %13, i1 noundef zeroext false)
  br label %15

15:                                               ; preds = %14, %1
  ret void
}